target datalayout = "e-m:e-p270:32:32-p271:32:32-p272:64:64-i64:64-i128:128-f80:128-n8:16:32:64-S128"
target triple = "x86_64-unknown-linux-gnu"

%struct.redisServer = type { i32, i64, ptr, ptr, ptr, i32, i32, i32, i32, i32, ptr, ptr, ptr, ptr, ptr, ptr, i32, i32, i64, i32, i32, i32, i32, ptr, i32, i32, [41 x i8], i32, i64, i32, i32, i32, ptr, ptr, i32, i32, i64, ptr, ptr, ptr, ptr, [2 x i32], i32, i32, i32, i32, i32, [16 x ptr], i32, ptr, ptr, i32, [8 x %struct.connListener], i32, %struct.connListener, ptr, ptr, ptr, ptr, ptr, ptr, ptr, ptr, ptr, ptr, i32, ptr, i32, ptr, [3 x %struct.pause_event], [256 x i8], ptr, i64, i32, i32, i32, i32, i64, i32, i32, i32, i32, i32, i64, i64, i64, i64, i64, i64, i64, i64, i64, double, i64, i64, i64, i64, i64, i64, i64, i64, i64, i64, i64, i64, i64, i64, i64, i64, i64, i64, i64, i64, double, i64, i64, i64, i64, i64, ptr, i64, i64, i64, %struct.malloc_stats, i64, i64, i64, i64, i64, i64, i64, i64, i64, i64, i64, i64, double, [4 x i64], i64, i64, i64, i64, i64, i64, i64, i64, i64, i64, [7 x %struct.anon], i64, i64, i64, i64, i64, i64, [4 x %struct.durationStats], i32, i32, i32, i32, i32, i32, i32, i32, i32, i32, i64, i32, i32, i32, i32, i64, i64, i32, i32, i32, i32, i32, ptr, [3 x %struct.clientBufferLimitsConfig], i32, i32, ptr, i32, i32, i32, i32, ptr, ptr, i32, i32, i64, i64, i64, i64, i64, i32, i32, ptr, i32, i32, i64, i64, i64, i64, i64, i32, i32, i64, i32, i32, i32, i32, i32, i32, i32, i32, ptr, i32, i64, i64, i64, i64, ptr, i32, ptr, i32, i32, i32, i64, i64, i64, i64, i32, i32, i32, i32, i32, i32, ptr, i32, i32, ptr, i32, i32, i32, [2 x i32], i32, %struct.redisOpArray, i32, ptr, i32, ptr, i32, i32, i32, i32, i32, i32, i32, [41 x i8], [41 x i8], i64, i64, i64, i64, i32, i32, ptr, i64, i64, i64, i32, i32, i32, i32, i32, i32, i32, i64, ptr, ptr, ptr, ptr, i32, i32, ptr, ptr, i32, i32, i64, i64, i64, ptr, i32, ptr, i64, i32, i32, i32, i64, i32, i32, i32, i32, ptr, i32, i32, [41 x i8], i64, i32, ptr, i32, i32, i64, i64, i32, i32, i32, i32, i32, i64, [3 x i32], i32, i32, i32, [9 x i32], ptr, ptr, i32, i64, ptr, ptr, i32, i32, i32, i32, i64, i64, i64, i64, i64, i64, i64, i64, i64, i64, i32, i32, i64, i64, i32, i64, i64, i64, i64, i64, ptr, ptr, i32, ptr, i32, i32, i32, i64, i64, ptr, ptr, i32, i32, i32, i32, i32, ptr, ptr, ptr, i32, i32, i32, i32, i32, i32, i32, i64, i32, i64, i32, i32, i32, i32, i32, i32, i32, i64, ptr, ptr, i64, ptr, i32, %struct.aclInfo, i32, i64, i32, i32, i32, %struct.redisTLSContextConfig, ptr, ptr, ptr, ptr, ptr, i64, i32, ptr, i32, i32, i32, i64, i32, ptr }
%struct.connListener = type { [16 x i32], i32, ptr, i32, i32, ptr, ptr }
%struct.pause_event = type { i32, i64 }
%struct.malloc_stats = type { i64, i64, i64, i64, i64 }
%struct.anon = type { i64, i64, [16 x i64], i32 }
%struct.durationStats = type { i64, i64, i64 }
%struct.clientBufferLimitsConfig = type { i64, i64, i64 }
%struct.redisOpArray = type { ptr, i32, i32 }
%struct.aclInfo = type { i64, i64, i64, i64 }
%struct.redisTLSContextConfig = type { ptr, ptr, ptr, ptr, ptr, ptr, ptr, ptr, ptr, ptr, ptr, ptr, i32, i32, i32, i32 }
%struct.client = type { i64, i64, ptr, i32, ptr, ptr, ptr, ptr, ptr, i64, i64, i32, ptr, i32, i32, ptr, i64, ptr, ptr, ptr, ptr, i32, i32, i64, ptr, i64, ptr, i64, i64, i64, i32, ptr, i64, i64, i32, i32, i32, i32, i64, i64, ptr, i64, i64, i64, i64, i64, i64, i64, i64, [41 x i8], i32, ptr, i32, i32, %struct.multiState, %struct.blockingState, i64, ptr, ptr, ptr, ptr, ptr, ptr, ptr, ptr, ptr, ptr, ptr, ptr, ptr, ptr, i64, ptr, i64, i32, ptr, ptr, ptr, i64, %struct.listNode, i64, i64, i32, i64, ptr }
%struct.multiState = type { ptr, i32, i32, i32, i64, i32 }
%struct.blockingState = type { i32, i64, i32, ptr, i32, i32, i64, ptr, ptr }
%struct.listNode = type { ptr, ptr, ptr }
%struct.listIter = type { ptr, i32 }
%struct.connection = type { ptr, i32, i32, i32, i16, i16, i16, ptr, ptr, ptr, ptr }
%struct.ConnectionType = type { ptr, ptr, ptr, ptr, ptr, ptr, ptr, ptr, ptr, ptr, ptr, ptr, ptr, ptr, ptr, ptr, ptr, ptr, ptr, ptr, ptr, ptr, ptr, ptr, ptr, ptr, ptr, ptr }
%struct.stat = type { i64, i64, i64, i32, i32, i32, i32, i64, i64, i64, i64, %struct.timespec, %struct.timespec, %struct.timespec, [3 x i64] }
%struct.timespec = type { i64, i64 }

@server = external global %struct.redisServer, align 8
@.str.97 = private unnamed_addr constant [44 x i8] c"SYNC failed. BGSAVE child returned an error\00", align 1
@.str.98 = private unnamed_addr constant [116 x i8] c"Streamed RDB transfer with replica %s succeeded (socket). Waiting for REPLCONF ACK from replica to enable streaming\00", align 1
@.str.99 = private unnamed_addr constant [49 x i8] c"SYNC failed. Can't open/stat DB after BGSAVE: %s\00", align 1
@.str.100 = private unnamed_addr constant [8 x i8] c"$%lld\0D\0A\00", align 1

; Function Attrs: nounwind uwtable
define internal i32 @connSetWriteHandler(ptr noundef %conn, ptr noundef %func) #0 {
entry:
  %conn.addr = alloca ptr, align 8
  %func.addr = alloca ptr, align 8
  store ptr %conn, ptr %conn.addr, align 8
  store ptr %func, ptr %func.addr, align 8
  %0 = load ptr, ptr %conn.addr, align 8
  %type = getelementptr inbounds %struct.connection, ptr %0, i32 0, i32 0
  %1 = load ptr, ptr %type, align 8
  %set_write_handler = getelementptr inbounds %struct.ConnectionType, ptr %1, i32 0, i32 19
  %2 = load ptr, ptr %set_write_handler, align 8
  %3 = load ptr, ptr %conn.addr, align 8
  %4 = load ptr, ptr %func.addr, align 8
  %call = call i32 %2(ptr noundef %3, ptr noundef %4, i32 noundef 0)
  ret i32 %call
}

; Function Attrs: nounwind uwtable
define dso_local void @updateSlavesWaitingBgsave(i32 noundef %bgsaveerr, i32 noundef %type) #0 {
entry:
  %bgsaveerr.addr = alloca i32, align 4
  %type.addr = alloca i32, align 4
  %ln = alloca ptr, align 8
  %li = alloca %struct.listIter, align 8
  %slave = alloca ptr, align 8
  %buf = alloca %struct.stat, align 8
  store i32 %bgsaveerr, ptr %bgsaveerr.addr, align 4
  store i32 %type, ptr %type.addr, align 4
  %0 = load ptr, ptr getelementptr inbounds (%struct.redisServer, ptr @server, i32 0, i32 59), align 8
  call void @listRewind(ptr noundef %0, ptr noundef %li)
  br label %while.cond

while.cond:                                       ; preds = %if.end43, %if.then40, %do.end30, %if.then16, %do.end, %entry
  %call = call ptr @listNext(ptr noundef %li)
  store ptr %call, ptr %ln, align 8
  %tobool = icmp ne ptr %call, null
  br i1 %tobool, label %while.body, label %while.end

while.body:                                       ; preds = %while.cond
  %1 = load ptr, ptr %ln, align 8
  %value = getelementptr inbounds %struct.listNode, ptr %1, i32 0, i32 2
  %2 = load ptr, ptr %value, align 8
  store ptr %2, ptr %slave, align 8
  %3 = load ptr, ptr %slave, align 8
  %replstate = getelementptr inbounds %struct.client, ptr %3, i32 0, i32 35
  %4 = load i32, ptr %replstate, align 4
  %cmp = icmp eq i32 %4, 7
  br i1 %cmp, label %if.then, label %if.end43

if.then:                                          ; preds = %while.body
  %5 = load i32, ptr %bgsaveerr.addr, align 4
  %cmp1 = icmp ne i32 %5, 0
  br i1 %cmp1, label %if.then2, label %if.end5

if.then2:                                         ; preds = %if.then
  %6 = load ptr, ptr %slave, align 8
  call void @freeClientAsync(ptr noundef %6)
  br label %do.body

do.body:                                          ; preds = %if.then2
  %7 = load i32, ptr getelementptr inbounds (%struct.redisServer, ptr @server, i32 0, i32 156), align 8
  %cmp3 = icmp slt i32 3, %7
  br i1 %cmp3, label %if.then4, label %if.end

if.then4:                                         ; preds = %do.body
  br label %do.end

if.end:                                           ; preds = %do.body
  call void (i32, ptr, ...) @_serverLog(i32 noundef 3, ptr noundef @.str.97)
  br label %do.end

do.end:                                           ; preds = %if.end, %if.then4
  br label %while.cond, !llvm.loop !27

if.end5:                                          ; preds = %if.then
  %8 = load i32, ptr %type.addr, align 4
  %cmp6 = icmp eq i32 %8, 2
  br i1 %cmp6, label %if.then7, label %if.else

if.then7:                                         ; preds = %if.end5
  br label %do.body8

do.body8:                                         ; preds = %if.then7
  %9 = load i32, ptr getelementptr inbounds (%struct.redisServer, ptr @server, i32 0, i32 156), align 8
  %cmp9 = icmp slt i32 2, %9
  br i1 %cmp9, label %if.then10, label %if.end11

if.then10:                                        ; preds = %do.body8
  br label %do.end13

if.end11:                                         ; preds = %do.body8
  %10 = load ptr, ptr %slave, align 8
  %call12 = call ptr @replicationGetSlaveName(ptr noundef %10)
  call void (i32, ptr, ...) @_serverLog(i32 noundef 2, ptr noundef @.str.98, ptr noundef %call12)
  br label %do.end13

do.end13:                                         ; preds = %if.end11, %if.then10
  %11 = load ptr, ptr %slave, align 8
  %call14 = call i32 @replicaPutOnline(ptr noundef %11)
  %tobool15 = icmp ne i32 %call14, 0
  br i1 %tobool15, label %if.end17, label %if.then16

if.then16:                                        ; preds = %do.end13
  %12 = load ptr, ptr %slave, align 8
  call void @freeClientAsync(ptr noundef %12)
  br label %while.cond, !llvm.loop !27

if.end17:                                         ; preds = %do.end13
  %13 = load ptr, ptr %slave, align 8
  %repl_start_cmd_stream_on_ack = getelementptr inbounds %struct.client, ptr %13, i32 0, i32 36
  store i32 1, ptr %repl_start_cmd_stream_on_ack, align 8
  br label %if.end42

if.else:                                          ; preds = %if.end5
  %14 = load ptr, ptr getelementptr inbounds (%struct.redisServer, ptr @server, i32 0, i32 225), align 8
  %call18 = call i32 (ptr, i32, ...) @open64(ptr noundef %14, i32 noundef 0)
  %15 = load ptr, ptr %slave, align 8
  %repldbfd = getelementptr inbounds %struct.client, ptr %15, i32 0, i32 37
  store i32 %call18, ptr %repldbfd, align 4
  %cmp19 = icmp eq i32 %call18, -1
  br i1 %cmp19, label %if.then23, label %lor.lhs.false

lor.lhs.false:                                    ; preds = %if.else
  %16 = load ptr, ptr %slave, align 8
  %repldbfd20 = getelementptr inbounds %struct.client, ptr %16, i32 0, i32 37
  %17 = load i32, ptr %repldbfd20, align 4
  %call21 = call i32 @fstat64(i32 noundef %17, ptr noundef %buf) #10
  %cmp22 = icmp eq i32 %call21, -1
  br i1 %cmp22, label %if.then23, label %if.end31

if.then23:                                        ; preds = %lor.lhs.false, %if.else
  %18 = load ptr, ptr %slave, align 8
  call void @freeClientAsync(ptr noundef %18)
  br label %do.body24

do.body24:                                        ; preds = %if.then23
  %19 = load i32, ptr getelementptr inbounds (%struct.redisServer, ptr @server, i32 0, i32 156), align 8
  %cmp25 = icmp slt i32 3, %19
  br i1 %cmp25, label %if.then26, label %if.end27

if.then26:                                        ; preds = %do.body24
  br label %do.end30

if.end27:                                         ; preds = %do.body24
  %call28 = call ptr @__errno_location() #12
  %20 = load i32, ptr %call28, align 4
  %call29 = call ptr @strerror(i32 noundef %20) #10
  call void (i32, ptr, ...) @_serverLog(i32 noundef 3, ptr noundef @.str.99, ptr noundef %call29)
  br label %do.end30

do.end30:                                         ; preds = %if.end27, %if.then26
  br label %while.cond, !llvm.loop !27

if.end31:                                         ; preds = %lor.lhs.false
  %21 = load ptr, ptr %slave, align 8
  %repldboff = getelementptr inbounds %struct.client, ptr %21, i32 0, i32 38
  store i64 0, ptr %repldboff, align 8
  %st_size = getelementptr inbounds %struct.stat, ptr %buf, i32 0, i32 8
  %22 = load i64, ptr %st_size, align 8
  %23 = load ptr, ptr %slave, align 8
  %repldbsize = getelementptr inbounds %struct.client, ptr %23, i32 0, i32 39
  store i64 %22, ptr %repldbsize, align 8
  %24 = load ptr, ptr %slave, align 8
  %replstate32 = getelementptr inbounds %struct.client, ptr %24, i32 0, i32 35
  store i32 8, ptr %replstate32, align 4
  %call33 = call ptr @sdsempty()
  %25 = load ptr, ptr %slave, align 8
  %repldbsize34 = getelementptr inbounds %struct.client, ptr %25, i32 0, i32 39
  %26 = load i64, ptr %repldbsize34, align 8
  %call35 = call ptr (ptr, ptr, ...) @sdscatprintf(ptr noundef %call33, ptr noundef @.str.100, i64 noundef %26)
  %27 = load ptr, ptr %slave, align 8
  %replpreamble = getelementptr inbounds %struct.client, ptr %27, i32 0, i32 40
  store ptr %call35, ptr %replpreamble, align 8
  %28 = load ptr, ptr %slave, align 8
  %conn = getelementptr inbounds %struct.client, ptr %28, i32 0, i32 2
  %29 = load ptr, ptr %conn, align 8
  %call36 = call i32 @connSetWriteHandler(ptr noundef %29, ptr noundef null)
  %30 = load ptr, ptr %slave, align 8
  %conn37 = getelementptr inbounds %struct.client, ptr %30, i32 0, i32 2
  %31 = load ptr, ptr %conn37, align 8
  %call38 = call i32 @connSetWriteHandler(ptr noundef %31, ptr noundef @sendBulkToSlave)
  %cmp39 = icmp eq i32 %call38, -1
  br i1 %cmp39, label %if.then40, label %if.end41

if.then40:                                        ; preds = %if.end31
  %32 = load ptr, ptr %slave, align 8
  call void @freeClientAsync(ptr noundef %32)
  br label %while.cond, !llvm.loop !27

if.end41:                                         ; preds = %if.end31
  br label %if.end42

if.end42:                                         ; preds = %if.end41, %if.end17
  br label %if.end43

if.end43:                                         ; preds = %if.end42, %while.body
  br label %while.cond, !llvm.loop !27

while.end:                                        ; preds = %while.cond
  ret void
}