; Function Attrs: nounwind uwtable
define dso_local void @updateSlavesWaitingBgsave(i32 noundef %bgsaveerr, i32 noundef %type) local_unnamed_addr #0 {
entry:
  %li = alloca %struct.listIter, align 8
  %buf = alloca %struct.stat, align 8
  %0 = load ptr, ptr getelementptr inbounds (%struct.redisServer, ptr @server, i64 0, i32 59), align 8
  call void @listRewind(ptr noundef %0, ptr noundef nonnull %li) #21
  %call19 = call ptr @listNext(ptr noundef nonnull %li) #21
  %tobool.not20 = icmp eq ptr %call19, null
  br i1 %tobool.not20, label %while.end, label %while.body.lr.ph

while.body.lr.ph:                                 ; preds = %entry
  %cmp1.not = icmp eq i32 %bgsaveerr, 0
  %st_size = getelementptr inbounds i8, ptr %buf, i64 48
  br i1 %cmp1.not, label %while.body.lr.ph.split.us, label %while.body

while.body.lr.ph.split.us:                        ; preds = %while.body.lr.ph
  %cmp6 = icmp eq i32 %type, 2
  br i1 %cmp6, label %while.body.us.us, label %while.body.us

while.body.us.us:                                 ; preds = %while.body.lr.ph.split.us, %while.cond.backedge.us.us
  %call22.us.us = phi ptr [ %call.us.us, %while.cond.backedge.us.us ], [ %call19, %while.body.lr.ph.split.us ]
  %value.us.us = getelementptr inbounds i8, ptr %call22.us.us, i64 16
  %1 = load ptr, ptr %value.us.us, align 8
  %replstate.us.us = getelementptr inbounds i8, ptr %1, i64 260
  %2 = load i32, ptr %replstate.us.us, align 4
  %cmp.us.us = icmp eq i32 %2, 7
  br i1 %cmp.us.us, label %if.then.us.us, label %while.cond.backedge.us.us

if.then.us.us:                                    ; preds = %while.body.us.us
  %3 = load i32, ptr getelementptr inbounds (%struct.redisServer, ptr @server, i64 0, i32 156), align 8
  %cmp9.us.us = icmp sgt i32 %3, 2
  br i1 %cmp9.us.us, label %do.end13.us.us, label %if.end11.us.us

if.end11.us.us:                                   ; preds = %if.then.us.us
  %call12.us.us = call ptr @replicationGetSlaveName(ptr noundef nonnull %1)
  call void (i32, ptr, ...) @_serverLog(i32 noundef 2, ptr noundef nonnull @.str.98, ptr noundef nonnull @replicationGetSlaveName.buf) #21
  br label %do.end13.us.us

do.end13.us.us:                                   ; preds = %if.end11.us.us, %if.then.us.us
  %call14.us.us = call i32 @replicaPutOnline(ptr noundef nonnull %1), !range !24
  %tobool15.not.us.us = icmp eq i32 %call14.us.us, 0
  br i1 %tobool15.not.us.us, label %if.then16.us.us, label %if.end17.us.us

if.end17.us.us:                                   ; preds = %do.end13.us.us
  %repl_start_cmd_stream_on_ack.us.us = getelementptr inbounds i8, ptr %1, i64 264
  store i32 1, ptr %repl_start_cmd_stream_on_ack.us.us, align 8
  br label %while.cond.backedge.us.us

if.then16.us.us:                                  ; preds = %do.end13.us.us
  call void @freeClientAsync(ptr noundef nonnull %1) #21
  br label %while.cond.backedge.us.us

while.cond.backedge.us.us:                        ; preds = %while.body.us.us, %if.end17.us.us, %if.then16.us.us
  %call.us.us = call ptr @listNext(ptr noundef nonnull %li) #21
  %tobool.not.us.us = icmp eq ptr %call.us.us, null
  br i1 %tobool.not.us.us, label %while.end, label %while.body.us.us, !llvm.loop !28

while.body.us:                                    ; preds = %while.body.lr.ph.split.us, %while.cond.backedge.us
  %call22.us = phi ptr [ %call.us, %while.cond.backedge.us ], [ %call19, %while.body.lr.ph.split.us ]
  %value.us = getelementptr inbounds i8, ptr %call22.us, i64 16
  %4 = load ptr, ptr %value.us, align 8
  %replstate.us = getelementptr inbounds i8, ptr %4, i64 260
  %5 = load i32, ptr %replstate.us, align 4
  %cmp.us = icmp eq i32 %5, 7
  br i1 %cmp.us, label %if.then.us, label %while.cond.backedge.us

if.then.us:                                       ; preds = %while.body.us
  %6 = load ptr, ptr getelementptr inbounds (%struct.redisServer, ptr @server, i64 0, i32 225), align 8
  %call18.us = call i32 (ptr, i32, ...) @open64(ptr noundef %6, i32 noundef 0) #21
  %repldbfd.us = getelementptr inbounds i8, ptr %4, i64 268
  store i32 %call18.us, ptr %repldbfd.us, align 4
  %cmp19.us = icmp eq i32 %call18.us, -1
  br i1 %cmp19.us, label %if.then23.us, label %lor.lhs.false.us

lor.lhs.false.us:                                 ; preds = %if.then.us
  %call21.us = call i32 @fstat64(i32 noundef %call18.us, ptr noundef nonnull %buf) #21
  %cmp22.us = icmp eq i32 %call21.us, -1
  br i1 %cmp22.us, label %if.then23.us, label %if.end31.us

if.end31.us:                                      ; preds = %lor.lhs.false.us
  %repldboff.us = getelementptr inbounds i8, ptr %4, i64 272
  store i64 0, ptr %repldboff.us, align 8
  %7 = load i64, ptr %st_size, align 8
  %repldbsize.us = getelementptr inbounds i8, ptr %4, i64 280
  store i64 %7, ptr %repldbsize.us, align 8
  store i32 8, ptr %replstate.us, align 4
  %call33.us = call ptr @sdsempty() #21
  %8 = load i64, ptr %repldbsize.us, align 8
  %call35.us = call ptr (ptr, ptr, ...) @sdscatprintf(ptr noundef %call33.us, ptr noundef nonnull @.str.100, i64 noundef %8) #21
  %replpreamble.us = getelementptr inbounds i8, ptr %4, i64 288
  store ptr %call35.us, ptr %replpreamble.us, align 8
  %conn.us = getelementptr inbounds i8, ptr %4, i64 16
  %9 = load ptr, ptr %conn.us, align 8
  %10 = load ptr, ptr %9, align 8
  %set_write_handler.i.us = getelementptr inbounds i8, ptr %10, i64 152
  %11 = load ptr, ptr %set_write_handler.i.us, align 8
  %call.i.us = call i32 %11(ptr noundef nonnull %9, ptr noundef null, i32 noundef 0) #21
  %12 = load ptr, ptr %conn.us, align 8
  %13 = load ptr, ptr %12, align 8
  %set_write_handler.i17.us = getelementptr inbounds i8, ptr %13, i64 152
  %14 = load ptr, ptr %set_write_handler.i17.us, align 8
  %call.i18.us = call i32 %14(ptr noundef nonnull %12, ptr noundef nonnull @sendBulkToSlave, i32 noundef 0) #21
  %cmp39.us = icmp eq i32 %call.i18.us, -1
  br i1 %cmp39.us, label %if.then40.us, label %while.cond.backedge.us

if.then40.us:                                     ; preds = %if.end31.us
  call void @freeClientAsync(ptr noundef nonnull %4) #21
  br label %while.cond.backedge.us

if.then23.us:                                     ; preds = %lor.lhs.false.us, %if.then.us
  call void @freeClientAsync(ptr noundef nonnull %4) #21
  %15 = load i32, ptr getelementptr inbounds (%struct.redisServer, ptr @server, i64 0, i32 156), align 8
  %cmp25.us = icmp sgt i32 %15, 3
  br i1 %cmp25.us, label %while.cond.backedge.us, label %if.end27.us

if.end27.us:                                      ; preds = %if.then23.us
  %call28.us = tail call ptr @__errno_location() #23
  %16 = load i32, ptr %call28.us, align 4
  %call29.us = call ptr @strerror(i32 noundef %16) #21
  call void (i32, ptr, ...) @_serverLog(i32 noundef 3, ptr noundef nonnull @.str.99, ptr noundef %call29.us) #21
  br label %while.cond.backedge.us

while.cond.backedge.us:                           ; preds = %while.body.us, %if.end31.us, %if.then23.us, %if.end27.us, %if.then40.us
  %call.us = call ptr @listNext(ptr noundef nonnull %li) #21
  %tobool.not.us = icmp eq ptr %call.us, null
  br i1 %tobool.not.us, label %while.end, label %while.body.us, !llvm.loop !28

while.body:                                       ; preds = %while.body.lr.ph, %while.cond.backedge
  %call22 = phi ptr [ %call, %while.cond.backedge ], [ %call19, %while.body.lr.ph ]
  %value = getelementptr inbounds i8, ptr %call22, i64 16
  %17 = load ptr, ptr %value, align 8
  %replstate = getelementptr inbounds i8, ptr %17, i64 260
  %18 = load i32, ptr %replstate, align 4
  %cmp = icmp eq i32 %18, 7
  br i1 %cmp, label %if.then, label %while.cond.backedge

if.then:                                          ; preds = %while.body
  call void @freeClientAsync(ptr noundef nonnull %17) #21
  %19 = load i32, ptr getelementptr inbounds (%struct.redisServer, ptr @server, i64 0, i32 156), align 8
  %cmp3 = icmp sgt i32 %19, 3
  br i1 %cmp3, label %while.cond.backedge, label %if.end

if.end:                                           ; preds = %if.then
  call void (i32, ptr, ...) @_serverLog(i32 noundef 3, ptr noundef nonnull @.str.97) #21
  br label %while.cond.backedge

while.cond.backedge:                              ; preds = %while.body, %if.end, %if.then
  %call = call ptr @listNext(ptr noundef nonnull %li) #21
  %tobool.not = icmp eq ptr %call, null
  br i1 %tobool.not, label %while.end, label %while.body, !llvm.loop !28

while.end:                                        ; preds = %while.cond.backedge, %while.cond.backedge.us, %while.cond.backedge.us.us, %entry
  ret void
}